; Function Attrs: mustprogress nounwind uwtable
define hidden void @_ZNK11AccessFlags8print_onEP12outputStream(ptr nocapture noundef nonnull readonly align 4 dereferenceable(4) %0, ptr noundef %1) local_unnamed_addr #0 align 2 {
  %3 = load i32, ptr %0, align 4
  %4 = and i32 %3, 1
  %.not = icmp eq i32 %4, 0
  br i1 %.not, label %6, label %5

5:                                                ; preds = %2
  tail call void (ptr, ptr, ...) @_ZN12outputStream5printEPKcz(ptr noundef nonnull align 8 dereferenceable(56) %1, ptr noundef nonnull @.str) #4
  %.pre = load i32, ptr %0, align 4
  br label %6

6:                                                ; preds = %5, %2
  %7 = phi i32 [ %.pre, %5 ], [ %3, %2 ]
  %8 = and i32 %7, 2
  %.not13 = icmp eq i32 %8, 0
  br i1 %.not13, label %10, label %9

9:                                                ; preds = %6
  tail call void (ptr, ptr, ...) @_ZN12outputStream5printEPKcz(ptr noundef nonnull align 8 dereferenceable(56) %1, ptr noundef nonnull @.str.4) #4
  %.pre24 = load i32, ptr %0, align 4
  br label %10

10:                                               ; preds = %9, %6
  %11 = phi i32 [ %.pre24, %9 ], [ %7, %6 ]
  %12 = and i32 %11, 4
  %.not14 = icmp eq i32 %12, 0
  br i1 %.not14, label %14, label %13

13:                                               ; preds = %10
  tail call void (ptr, ptr, ...) @_ZN12outputStream5printEPKcz(ptr noundef nonnull align 8 dereferenceable(56) %1, ptr noundef nonnull @.str.5) #4
  %.pre25 = load i32, ptr %0, align 4
  br label %14

14:                                               ; preds = %13, %10
  %15 = phi i32 [ %.pre25, %13 ], [ %11, %10 ]
  %16 = and i32 %15, 8
  %.not15 = icmp eq i32 %16, 0
  br i1 %.not15, label %18, label %17

17:                                               ; preds = %14
  tail call void (ptr, ptr, ...) @_ZN12outputStream5printEPKcz(ptr noundef nonnull align 8 dereferenceable(56) %1, ptr noundef nonnull @.str.6) #4
  %.pre26 = load i32, ptr %0, align 4
  br label %18

18:                                               ; preds = %17, %14
  %19 = phi i32 [ %.pre26, %17 ], [ %15, %14 ]
  %20 = and i32 %19, 16
  %.not16 = icmp eq i32 %20, 0
  br i1 %.not16, label %22, label %21

21:                                               ; preds = %18
  tail call void (ptr, ptr, ...) @_ZN12outputStream5printEPKcz(ptr noundef nonnull align 8 dereferenceable(56) %1, ptr noundef nonnull @.str.7) #4
  %.pre27 = load i32, ptr %0, align 4
  br label %22

22:                                               ; preds = %21, %18
  %23 = phi i32 [ %.pre27, %21 ], [ %19, %18 ]
  %24 = and i32 %23, 32
  %.not17 = icmp eq i32 %24, 0
  br i1 %.not17, label %26, label %25

25:                                               ; preds = %22
  tail call void (ptr, ptr, ...) @_ZN12outputStream5printEPKcz(ptr noundef nonnull align 8 dereferenceable(56) %1, ptr noundef nonnull @.str.8) #4
  %.pre28 = load i32, ptr %0, align 4
  br label %26

26:                                               ; preds = %25, %22
  %27 = phi i32 [ %.pre28, %25 ], [ %23, %22 ]
  %28 = and i32 %27, 64
  %.not18 = icmp eq i32 %28, 0
  br i1 %.not18, label %30, label %29

29:                                               ; preds = %26
  tail call void (ptr, ptr, ...) @_ZN12outputStream5printEPKcz(ptr noundef nonnull align 8 dereferenceable(56) %1, ptr noundef nonnull @.str.9) #4
  %.pre29 = load i32, ptr %0, align 4
  br label %30

30:                                               ; preds = %29, %26
  %31 = phi i32 [ %.pre29, %29 ], [ %27, %26 ]
  %32 = and i32 %31, 128
  %.not19 = icmp eq i32 %32, 0
  br i1 %.not19, label %34, label %33

33:                                               ; preds = %30
  tail call void (ptr, ptr, ...) @_ZN12outputStream5printEPKcz(ptr noundef nonnull align 8 dereferenceable(56) %1, ptr noundef nonnull @.str.10) #4
  %.pre30 = load i32, ptr %0, align 4
  br label %34

34:                                               ; preds = %33, %30
  %35 = phi i32 [ %.pre30, %33 ], [ %31, %30 ]
  %36 = and i32 %35, 256
  %.not20 = icmp eq i32 %36, 0
  br i1 %.not20, label %38, label %37

37:                                               ; preds = %34
  tail call void (ptr, ptr, ...) @_ZN12outputStream5printEPKcz(ptr noundef nonnull align 8 dereferenceable(56) %1, ptr noundef nonnull @.str.11) #4
  %.pre31 = load i32, ptr %0, align 4
  br label %38

38:                                               ; preds = %37, %34
  %39 = phi i32 [ %.pre31, %37 ], [ %35, %34 ]
  %40 = and i32 %39, 512
  %.not21 = icmp eq i32 %40, 0
  br i1 %.not21, label %42, label %41

41:                                               ; preds = %38
  tail call void (ptr, ptr, ...) @_ZN12outputStream5printEPKcz(ptr noundef nonnull align 8 dereferenceable(56) %1, ptr noundef nonnull @.str.12) #4
  %.pre32 = load i32, ptr %0, align 4
  br label %42

42:                                               ; preds = %41, %38
  %43 = phi i32 [ %.pre32, %41 ], [ %39, %38 ]
  %44 = and i32 %43, 1024
  %.not22 = icmp eq i32 %44, 0
  br i1 %.not22, label %46, label %45

45:                                               ; preds = %42
  tail call void (ptr, ptr, ...) @_ZN12outputStream5printEPKcz(ptr noundef nonnull align 8 dereferenceable(56) %1, ptr noundef nonnull @.str.13) #4
  %.pre33 = load i32, ptr %0, align 4
  br label %46

46:                                               ; preds = %45, %42
  %47 = phi i32 [ %.pre33, %45 ], [ %43, %42 ]
  %48 = and i32 %47, 4096
  %.not23 = icmp eq i32 %48, 0
  br i1 %.not23, label %50, label %49

49:                                               ; preds = %46
  tail call void (ptr, ptr, ...) @_ZN12outputStream5printEPKcz(ptr noundef nonnull align 8 dereferenceable(56) %1, ptr noundef nonnull @.str.14) #4
  br label %50

50:                                               ; preds = %49, %46
  ret void
}